target datalayout = "e-m:e-p270:32:32-p271:32:32-p272:64:64-i64:64-i128:128-f80:128-n8:16:32:64-S128"
target triple = "x86_64-pc-linux-gnu"

%"class.clang::SourceLocation" = type { i32 }
%"class.clang::MacroPPCallbacks" = type { %"class.clang::PPCallbacks", ptr, ptr, %"class.clang::SourceLocation", i32, i32, %"class.llvm::SmallVector.162" }
%"class.clang::PPCallbacks" = type { ptr }
%"class.llvm::SmallVector.162" = type { %"class.llvm::SmallVectorImpl.163", %"struct.llvm::SmallVectorStorage.166" }
%"class.llvm::SmallVectorImpl.163" = type { %"class.llvm::SmallVectorTemplateBase.164" }
%"class.llvm::SmallVectorTemplateBase.164" = type { %"class.llvm::SmallVectorTemplateCommon.165" }
%"class.llvm::SmallVectorTemplateCommon.165" = type { %"class.llvm::SmallVectorBase.7" }
%"class.llvm::SmallVectorBase.7" = type { ptr, i32, i32 }
%"struct.llvm::SmallVectorStorage.166" = type { [32 x i8] }

; Function Attrs: mustprogress nounwind uwtable
define linkonce_odr hidden noundef ptr @_ZN4llvm25SmallVectorTemplateCommonIPNS_11DIMacroFileEvE5beginEv(ptr noundef nonnull align 8 dereferenceable(16) %0) #0 comdat align 2 {
  %2 = alloca ptr, align 8
  store ptr %0, ptr %2, align 8
  %3 = load ptr, ptr %2, align 8
  %4 = getelementptr inbounds nuw %"class.llvm::SmallVectorBase.7", ptr %3, i32 0, i32 0
  %5 = load ptr, ptr %4, align 8
  ret ptr %5
}

; Function Attrs: mustprogress nounwind uwtable
define linkonce_odr hidden noundef ptr @_ZN4llvm25SmallVectorTemplateCommonIPNS_11DIMacroFileEvE3endEv(ptr noundef nonnull align 8 dereferenceable(16) %0) #0 comdat align 2 {
  %2 = alloca ptr, align 8
  store ptr %0, ptr %2, align 8
  %3 = load ptr, ptr %2, align 8
  %4 = call noundef ptr @_ZN4llvm25SmallVectorTemplateCommonIPNS_11DIMacroFileEvE5beginEv(ptr noundef nonnull align 8 dereferenceable(16) %3)
  %5 = call noundef i64 @_ZNK4llvm15SmallVectorBaseIjE4sizeEv(ptr noundef nonnull align 8 dereferenceable(16) %3)
  %6 = getelementptr inbounds ptr, ptr %4, i64 %5
  ret ptr %6
}

; Function Attrs: mustprogress nounwind uwtable
define linkonce_odr hidden noundef nonnull align 8 dereferenceable(8) ptr @_ZN4llvm25SmallVectorTemplateCommonIPNS_11DIMacroFileEvE4backEv(ptr noundef nonnull align 8 dereferenceable(16) %0) #0 comdat align 2 {
  %2 = alloca ptr, align 8
  store ptr %0, ptr %2, align 8
  %3 = load ptr, ptr %2, align 8
  %4 = call noundef ptr @_ZN4llvm25SmallVectorTemplateCommonIPNS_11DIMacroFileEvE3endEv(ptr noundef nonnull align 8 dereferenceable(16) %3)
  %5 = getelementptr inbounds ptr, ptr %4, i64 -1
  ret ptr %5
}

; Function Attrs: mustprogress nounwind uwtable
define dso_local noundef ptr @_ZN5clang16MacroPPCallbacks15getCurrentScopeEv(ptr noundef nonnull align 8 dereferenceable(88) %0) #0 align 2 {
  %2 = alloca ptr, align 8
  %3 = alloca ptr, align 8
  store ptr %0, ptr %3, align 8
  %4 = load ptr, ptr %3, align 8
  %5 = getelementptr inbounds nuw %"class.clang::MacroPPCallbacks", ptr %4, i32 0, i32 5
  %6 = load i32, ptr %5, align 8
  %7 = icmp eq i32 %6, 4
  br i1 %7, label %12, label %8

8:                                                ; preds = %1
  %9 = getelementptr inbounds nuw %"class.clang::MacroPPCallbacks", ptr %4, i32 0, i32 5
  %10 = load i32, ptr %9, align 8
  %11 = icmp eq i32 %10, 3
  br i1 %11, label %12, label %16

12:                                               ; preds = %8, %1
  %13 = getelementptr inbounds nuw %"class.clang::MacroPPCallbacks", ptr %4, i32 0, i32 6
  %14 = call noundef nonnull align 8 dereferenceable(8) ptr @_ZN4llvm25SmallVectorTemplateCommonIPNS_11DIMacroFileEvE4backEv(ptr noundef nonnull align 8 dereferenceable(16) %13)
  %15 = load ptr, ptr %14, align 8
  store ptr %15, ptr %2, align 8
  br label %17

16:                                               ; preds = %8
  store ptr null, ptr %2, align 8
  br label %17

17:                                               ; preds = %16, %12
  %18 = load ptr, ptr %2, align 8
  ret ptr %18
}