; Function Attrs: mustprogress nounwind uwtable
define dso_local noundef ptr @_ZN5clang16MacroPPCallbacks15getCurrentScopeEv(ptr noundef nonnull align 8 dereferenceable(88) %0) local_unnamed_addr #0 align 2 {
  %2 = getelementptr inbounds nuw i8, ptr %0, i64 32
  %3 = load i32, ptr %2, align 8
  %.off = add i32 %3, -3
  %switch = icmp ult i32 %.off, 2
  br i1 %switch, label %4, label %11

4:                                                ; preds = %1
  %5 = getelementptr inbounds nuw i8, ptr %0, i64 40
  %6 = load ptr, ptr %5, align 8
  %7 = tail call noundef i64 @_ZNK4llvm15SmallVectorBaseIjE4sizeEv(ptr noundef nonnull align 8 dereferenceable(16) %5) #14
  %8 = getelementptr inbounds ptr, ptr %6, i64 %7
  %9 = getelementptr inbounds i8, ptr %8, i64 -8
  %10 = load ptr, ptr %9, align 8
  br label %11

11:                                               ; preds = %1, %4
  %.0 = phi ptr [ %10, %4 ], [ null, %1 ]
  ret ptr %.0
}